; Function Attrs: nounwind sspstrong uwtable
define dso_local void @tcg_gen_ssadd_vec(i32 noundef %vece, ptr noundef %r, ptr noundef %a, ptr noundef %b) local_unnamed_addr #0 {
entry:
  %0 = tail call align 8 ptr @llvm.threadlocal.address.p0(ptr align 8 @tcg_ctx)
  %1 = load ptr, ptr %0, align 8
  %2 = ptrtoint ptr %r to i64
  %add.ptr.i.i.i.i = getelementptr i8, ptr %1, i64 %2
  %3 = ptrtoint ptr %a to i64
  %add.ptr.i.i17.i.i = getelementptr i8, ptr %1, i64 %3
  %4 = ptrtoint ptr %b to i64
  %add.ptr.i.i18.i.i = getelementptr i8, ptr %1, i64 %4
  %5 = ptrtoint ptr %add.ptr.i.i.i.i to i64
  %6 = ptrtoint ptr %add.ptr.i.i17.i.i to i64
  %7 = ptrtoint ptr %add.ptr.i.i18.i.i to i64
  %bf.load.i.i = load i64, ptr %add.ptr.i.i.i.i, align 8
  %8 = trunc i64 %bf.load.i.i to i32
  %9 = lshr i32 %8, 16
  %bf.cast.i.i = and i32 %9, 255
  %bf.load6.i.i = load i64, ptr %add.ptr.i.i17.i.i, align 8
  %10 = trunc i64 %bf.load6.i.i to i32
  %11 = lshr i32 %10, 16
  %bf.cast9.i.i = and i32 %11, 255
  %cmp.i.i = icmp samesign uge i32 %bf.cast9.i.i, %bf.cast.i.i
  tail call void @llvm.assume(i1 %cmp.i.i)
  %bf.load11.i.i = load i64, ptr %add.ptr.i.i18.i.i, align 8
  %12 = trunc i64 %bf.load11.i.i to i32
  %13 = lshr i32 %12, 16
  %bf.cast14.i.i = and i32 %13, 255
  %cmp15.i.i = icmp samesign uge i32 %bf.cast14.i.i, %bf.cast.i.i
  tail call void @llvm.assume(i1 %cmp15.i.i)
  %call19.i.i = tail call i32 @tcg_can_emit_vec_op(i32 noundef range(i32 155, 190) 160, i32 noundef %bf.cast.i.i, i32 noundef %vece) #5
  %cmp20.i.i = icmp sgt i32 %call19.i.i, 0
  br i1 %cmp20.i.i, label %if.then21.i.i, label %if.else.i.i

if.then21.i.i:                                    ; preds = %entry
  %call.i.i.i = tail call ptr @tcg_emit_op(i32 noundef range(i32 155, 190) 160, i32 noundef 3) #5
  %bf.load.i.i.i = load i32, ptr %call.i.i.i, align 8
  %sub.i.i.i = shl nuw nsw i32 %bf.cast.i.i, 16
  %bf.value.i.i.i = add nuw nsw i32 %sub.i.i.i, 16580608
  %bf.clear.i.i.i = and i32 %bf.load.i.i.i, 65535
  %bf.value2.i.i.i = shl i32 %vece, 24
  %bf.value.masked.i.i.i = and i32 %bf.value.i.i.i, 16711680
  %bf.clear4.i.i.i = or disjoint i32 %bf.value.masked.i.i.i, %bf.clear.i.i.i
  %bf.set5.i.i.i = or disjoint i32 %bf.clear4.i.i.i, %bf.value2.i.i.i
  store i32 %bf.set5.i.i.i, ptr %call.i.i.i, align 8
  %args.i.i.i = getelementptr inbounds nuw i8, ptr %call.i.i.i, i64 32
  store i64 %5, ptr %args.i.i.i, align 8
  %arrayidx7.i.i.i = getelementptr i8, ptr %call.i.i.i, i64 40
  store i64 %6, ptr %arrayidx7.i.i.i, align 8
  %arrayidx9.i.i.i = getelementptr i8, ptr %call.i.i.i, i64 48
  store i64 %7, ptr %arrayidx9.i.i.i, align 8
  br label %do_op3_nofail.exit

if.else.i.i:                                      ; preds = %entry
  %cmp22.i.i = icmp ne i32 %call19.i.i, 0
  tail call void @llvm.assume(i1 %cmp22.i.i)
  tail call void (i32, i32, i32, i64, ...) @tcg_expand_vec_op(i32 noundef range(i32 155, 190) 160, i32 noundef %bf.cast.i.i, i32 noundef %vece, i64 noundef %5, i64 noundef %6, i64 noundef %7) #5
  br label %do_op3_nofail.exit

do_op3_nofail.exit:                               ; preds = %if.then21.i.i, %if.else.i.i
  ret void
}